target datalayout = "e-m:e-p270:32:32-p271:32:32-p272:64:64-i64:64-i128:128-f80:128-n8:16:32:64-S128"
target triple = "x86_64-pc-linux-gnu"

%struct.__va_list_tag = type { i32, i32, ptr, ptr }

@.str.1 = private unnamed_addr constant [5 x i8] c"%-*s\00", align 1

; Function Attrs: nounwind uwtable
define dso_local void @prep_status(ptr noundef %0, ...) #0 {
  %2 = alloca ptr, align 8
  %3 = alloca [1 x %struct.__va_list_tag], align 16
  %4 = alloca [1024 x i8], align 16
  store ptr %0, ptr %2, align 8
  call void @llvm.lifetime.start.p0(i64 24, ptr %3) #8
  call void @llvm.lifetime.start.p0(i64 1024, ptr %4) #8
  %5 = getelementptr inbounds [1 x %struct.__va_list_tag], ptr %3, i64 0, i64 0
  call void @llvm.va_start.p0(ptr %5)
  %6 = getelementptr inbounds [1024 x i8], ptr %4, i64 0, i64 0
  %7 = load ptr, ptr %2, align 8
  %8 = getelementptr inbounds [1 x %struct.__va_list_tag], ptr %3, i64 0, i64 0
  %9 = call i32 @pg_vsnprintf(ptr noundef %6, i64 noundef 1024, ptr noundef %7, ptr noundef %8)
  %10 = getelementptr inbounds [1 x %struct.__va_list_tag], ptr %3, i64 0, i64 0
  call void @llvm.va_end.p0(ptr %10)
  %11 = getelementptr inbounds [1024 x i8], ptr %4, i64 0, i64 0
  call void (i32, ptr, ...) @pg_log(i32 noundef 2, ptr noundef @.str.1, i32 noundef 62, ptr noundef %11)
  call void @llvm.lifetime.end.p0(i64 1024, ptr %4) #8
  call void @llvm.lifetime.end.p0(i64 24, ptr %3) #8
  ret void
}