; Function Attrs: nounwind uwtable
define dso_local void @prep_status(ptr noundef %0, ...) local_unnamed_addr #0 {
  %2 = alloca [1 x %struct.__va_list_tag], align 16
  %3 = alloca [1024 x i8], align 16
  call void @llvm.lifetime.start.p0(i64 24, ptr nonnull %2) #11
  call void @llvm.lifetime.start.p0(i64 1024, ptr nonnull %3) #11
  call void @llvm.va_start.p0(ptr nonnull %2)
  %4 = call i32 @pg_vsnprintf(ptr noundef nonnull %3, i64 noundef 1024, ptr noundef %0, ptr noundef nonnull %2) #11
  call void @llvm.va_end.p0(ptr nonnull %2)
  call void (i32, ptr, ...) @pg_log(i32 noundef 2, ptr noundef nonnull @.str.1, i32 noundef 62, ptr noundef nonnull %3)
  call void @llvm.lifetime.end.p0(i64 1024, ptr nonnull %3) #11
  call void @llvm.lifetime.end.p0(i64 24, ptr nonnull %2) #11
  ret void
}